; Function Attrs: mustprogress uwtable
define hidden i32 @_ZN3smt10theory_str10mk_literalEP4expr(ptr noundef nonnull align 8 dereferenceable(1800) %0, ptr noundef %1) local_unnamed_addr #4 align 2 personality ptr @__gxx_personality_v0 {
  %3 = alloca %class.obj_ref, align 8
  %4 = getelementptr inbounds nuw i8, ptr %0, i64 24
  %5 = load ptr, ptr %4, align 8, !tbaa !385
  call void @llvm.lifetime.start.p0(i64 16, ptr nonnull %3) #25
  store ptr %1, ptr %3, align 8, !tbaa !252
  %6 = getelementptr inbounds nuw i8, ptr %3, i64 8
  store ptr %5, ptr %6, align 8, !tbaa !146
  %.not.i.i = icmp eq ptr %1, null
  br i1 %.not.i.i, label %_ZN7obj_refI4expr11ast_managerEC2EPS0_RS1_.exit, label %_ZN11ast_manager7inc_refEP3ast.exit.i.i

_ZN11ast_manager7inc_refEP3ast.exit.i.i:          ; preds = %2
  %7 = getelementptr inbounds nuw i8, ptr %1, i64 8
  %8 = load i32, ptr %7, align 4, !tbaa !253
  %9 = add i32 %8, 1
  store i32 %9, ptr %7, align 4, !tbaa !253
  br label %_ZN7obj_refI4expr11ast_managerEC2EPS0_RS1_.exit

_ZN7obj_refI4expr11ast_managerEC2EPS0_RS1_.exit:  ; preds = %2, %_ZN11ast_manager7inc_refEP3ast.exit.i.i
  %10 = load ptr, ptr %0, align 8, !tbaa !3
  %11 = getelementptr inbounds nuw i8, ptr %10, i64 392
  %12 = load ptr, ptr %11, align 8
  %13 = invoke noundef ptr %12(ptr noundef nonnull align 8 dereferenceable(1800) %0, ptr noundef %1)
          to label %14 unwind label %28

14:                                               ; preds = %_ZN7obj_refI4expr11ast_managerEC2EPS0_RS1_.exit
  %15 = getelementptr inbounds nuw i8, ptr %0, i64 16
  %16 = load ptr, ptr %15, align 8, !tbaa !386
  %17 = invoke i32 @_ZNK3smt7context11get_literalEP4expr(ptr noundef nonnull align 8 dereferenceable(10544) %16, ptr noundef %1)
          to label %18 unwind label %28

18:                                               ; preds = %14
  br i1 %.not.i.i, label %_ZN7obj_refI4expr11ast_managerED2Ev.exit, label %19

19:                                               ; preds = %18
  %20 = getelementptr inbounds nuw i8, ptr %1, i64 8
  %21 = load i32, ptr %20, align 4, !tbaa !253
  %22 = add i32 %21, -1
  store i32 %22, ptr %20, align 4, !tbaa !253
  %23 = icmp eq i32 %22, 0
  br i1 %23, label %24, label %_ZN7obj_refI4expr11ast_managerED2Ev.exit

24:                                               ; preds = %19
  invoke void @_ZN11ast_manager11delete_nodeEP3ast(ptr noundef nonnull align 8 dereferenceable(976) %5, ptr noundef nonnull %1)
          to label %_ZN7obj_refI4expr11ast_managerED2Ev.exit unwind label %25

25:                                               ; preds = %24
  %26 = landingpad { ptr, i32 }
          catch ptr null
  %27 = extractvalue { ptr, i32 } %26, 0
  tail call void @__clang_call_terminate(ptr %27) #26
  unreachable

_ZN7obj_refI4expr11ast_managerED2Ev.exit:         ; preds = %18, %19, %24
  call void @llvm.lifetime.end.p0(i64 16, ptr nonnull %3) #25
  ret i32 %17

28:                                               ; preds = %14, %_ZN7obj_refI4expr11ast_managerEC2EPS0_RS1_.exit
  %29 = landingpad { ptr, i32 }
          cleanup
  call void @_ZN7obj_refI4expr11ast_managerED2Ev(ptr noundef nonnull align 8 dereferenceable(16) %3) #25
  call void @llvm.lifetime.end.p0(i64 16, ptr nonnull %3) #25
  resume { ptr, i32 } %29
}